; Function Attrs: nofree norecurse nosync nounwind memory(read, inaccessiblemem: none) uwtable
define hidden i32 @cmsPipelineStageCount(ptr nocapture noundef readonly %0) local_unnamed_addr #4 {
  %.045 = load ptr, ptr %0, align 8
  %.not6 = icmp eq ptr %.045, null
  br i1 %.not6, label %._crit_edge, label %.lr.ph

.lr.ph:                                           ; preds = %1, %.lr.ph
  %.048 = phi ptr [ %.04, %.lr.ph ], [ %.045, %1 ]
  %.07 = phi i32 [ %2, %.lr.ph ], [ 0, %1 ]
  %2 = add i32 %.07, 1
  %3 = getelementptr inbounds i8, ptr %.048, i64 56
  %.04 = load ptr, ptr %3, align 8
  %.not = icmp eq ptr %.04, null
  br i1 %.not, label %._crit_edge, label %.lr.ph, !llvm.loop !6

._crit_edge:                                      ; preds = %.lr.ph, %1
  %.0.lcssa = phi i32 [ 0, %1 ], [ %2, %.lr.ph ]
  ret i32 %.0.lcssa
}